; Function Attrs: mustprogress nofree norecurse nosync nounwind willreturn memory(read, inaccessiblemem: none) uwtable
define noundef i32 @_ZNK6icu_7721RegionNameEnumeration5countER10UErrorCode(ptr noundef nonnull readonly align 8 captures(none) dereferenceable(128) %0, ptr nonnull readnone align 4 captures(none) %1) unnamed_addr #15 align 2 {
  %3 = getelementptr inbounds nuw i8, ptr %0, i64 120
  %4 = load ptr, ptr %3, align 8, !tbaa !108
  %5 = icmp eq ptr %4, null
  br i1 %5, label %9, label %6

6:                                                ; preds = %2
  %7 = getelementptr inbounds nuw i8, ptr %4, i64 8
  %8 = load i32, ptr %7, align 8, !tbaa !55
  br label %9

9:                                                ; preds = %2, %6
  %10 = phi i32 [ %8, %6 ], [ 0, %2 ]
  ret i32 %10
}